target datalayout = "e-m:e-p270:32:32-p271:32:32-p272:64:64-i64:64-i128:128-f80:128-n8:16:32:64-S128"
target triple = "x86_64-pc-linux-gnu"

%class.OopHandle = type { ptr }
%class.XHeap = type { %class.XWorkers, %class.XObjectAllocator, %class.XPageAllocator, %class.XPageTable, %class.XForwardingTable, [8 x i8], %class.XMark, %class.XReferenceProcessor, %class.XWeakRootsProcessor, %class.XRelocate, %class.XRelocationSet, %class.XUnload, %class.XServiceability, [8 x i8] }
%class.XWorkers = type { %class.WorkerThreads }
%class.WorkerThreads = type { ptr, ptr, ptr, i32, i32, i32, %class.WorkerTaskDispatcher }
%class.WorkerTaskDispatcher = type { ptr, i32, i32, %class.Semaphore, %class.Semaphore }
%class.Semaphore = type { %class.PosixSemaphore }
%class.PosixSemaphore = type { %union.sem_t }
%union.sem_t = type { i64, [24 x i8] }
%class.XObjectAllocator = type { i8, %class.XValue, %class.XValue, %class.XValue, %class.XValue, %class.XValue.2, %class.XValue.3 }
%class.XValue = type { i64 }
%class.XValue.2 = type { i64 }
%class.XValue.3 = type { i64 }
%class.XPageAllocator = type <{ %class.XLock, %class.XPageCache, %class.XVirtualMemoryManager, %class.XPhysicalMemoryManager, i64, i64, i64, i64, i64, i64, i64, i64, i64, %class.XList.7, i64, %class.XList.7, ptr, ptr, %class.XSafeDelete, i8, [7 x i8] }>
%class.XLock = type { %class.PlatformMutex }
%class.PlatformMutex = type { %union.pthread_mutex_t }
%union.pthread_mutex_t = type { %struct.__pthread_mutex_s }
%struct.__pthread_mutex_s = type { i32, i32, i32, i32, i32, i16, i16, %struct.__pthread_internal_list }
%struct.__pthread_internal_list = type { ptr, ptr }
%class.XPageCache = type { %class.XValue.4, %class.XList, %class.XList, i64 }
%class.XValue.4 = type { i64 }
%class.XList = type { %class.XListNode, i64 }
%class.XListNode = type { ptr, ptr }
%class.XVirtualMemoryManager = type <{ %class.XMemoryManager, i64, i8, [7 x i8] }>
%class.XMemoryManager = type { %class.XLock, %class.XList.5, %"struct.XMemoryManager::Callbacks" }
%class.XList.5 = type { %class.XListNode.6, i64 }
%class.XListNode.6 = type { ptr, ptr }
%"struct.XMemoryManager::Callbacks" = type { ptr, ptr, ptr, ptr, ptr, ptr }
%class.XPhysicalMemoryManager = type { %class.XPhysicalMemoryBacking, %class.XMemoryManager }
%class.XPhysicalMemoryBacking = type <{ i32, [4 x i8], i64, i64, i64, i64, i8, [7 x i8] }>
%class.XList.7 = type { %class.XListNode.8, i64 }
%class.XListNode.8 = type { ptr, ptr }
%class.XSafeDelete = type { %class.XSafeDeleteImpl, %class.XLock }
%class.XSafeDeleteImpl = type { ptr, i64, %class.GrowableArrayCHeap }
%class.GrowableArrayCHeap = type { %class.GrowableArrayWithAllocator }
%class.GrowableArrayWithAllocator = type { %class.GrowableArrayView }
%class.GrowableArrayView = type { %class.GrowableArrayBase, ptr }
%class.GrowableArrayBase = type { i32, i32 }
%class.XPageTable = type { %class.XGranuleMap }
%class.XGranuleMap = type { i64, ptr }
%class.XForwardingTable = type { %class.XGranuleMap.9 }
%class.XGranuleMap.9 = type { i64, ptr }
%class.XMark = type <{ ptr, ptr, [48 x i8], %class.XMarkStackAllocator, %class.XMarkStripeSet, %class.XMarkTerminate, i8, [7 x i8], i64, i64, i64, i64, i64, i64, i32, [4 x i8] }>
%class.XMarkStackAllocator = type { %class.XStackList, [56 x i8], %class.XMarkStackSpace }
%class.XStackList = type { ptr }
%class.XMarkStackSpace = type { %class.XLock, i64, i64, i64 }
%class.XMarkStripeSet = type { i64, i64, [48 x i8], [16 x %class.XMarkStripe] }
%class.XMarkStripe = type { %class.XStackList.10, [56 x i8], %class.XStackList.10, [56 x i8] }
%class.XStackList.10 = type { ptr }
%class.XMarkTerminate = type { i32, [60 x i8], i32, i32, [56 x i8] }
%class.XReferenceProcessor = type { %class.ReferenceDiscoverer, ptr, ptr, %class.XValue.11, %class.XValue.11, %class.XValue.11, %class.XValue.12, %class.XValue.13, ptr }
%class.ReferenceDiscoverer = type { ptr }
%class.XValue.11 = type { i64 }
%class.XValue.12 = type { i64 }
%class.XValue.13 = type { i64 }
%class.XWeakRootsProcessor = type { ptr }
%class.XRelocate = type { ptr }
%class.XRelocationSet = type { ptr, %class.XForwardingAllocator, ptr, i64 }
%class.XForwardingAllocator = type { ptr, ptr, ptr }
%class.XUnload = type { ptr }
%class.XServiceability = type { i64, i64, %class.XServiceabilityMemoryPool, %class.XServiceabilityMemoryManager, %class.XServiceabilityMemoryManager, ptr }
%class.XServiceabilityMemoryPool = type { %class.CollectedMemoryPool.base, [7 x i8] }
%class.CollectedMemoryPool.base = type { %class.MemoryPool.base }
%class.MemoryPool.base = type <{ ptr, ptr, i32, [4 x i8], i64, i64, i8, [7 x i8], [5 x ptr], i32, [4 x i8], %class.MemoryUsage, %class.MemoryUsage, ptr, ptr, ptr, ptr, %class.OopHandle, i8 }>
%class.MemoryUsage = type { i64, i64, i64, i64 }
%class.XServiceabilityMemoryManager = type { %class.GCMemoryManager.base, i8 }
%class.GCMemoryManager.base = type <{ %class.MemoryManager.base, [7 x i8], i64, %class.elapsedTimer, ptr, ptr, ptr, i32, i8, [10 x i8] }>
%class.MemoryManager.base = type <{ ptr, [10 x ptr], i32, [4 x i8], ptr, %class.OopHandle, i8 }>
%class.elapsedTimer = type <{ i64, i64, i8, [7 x i8] }>

@_ZN5XHeap5_heapE = external global ptr, align 8
@XAddressOffsetMask = external global i64, align 8
@XGlobalPhase = external global i32, align 4
@XAddressWeakBadMask = external global i64, align 8
@XAddressGoodMask = external global i64, align 8

; Function Attrs: mustprogress nounwind uwtable
define linkonce_odr hidden noundef i64 @_ZNK11XGranuleMapIP11XForwardingE16index_for_offsetEm(ptr noundef nonnull align 8 dereferenceable(16) %0, i64 noundef %1) #1 comdat align 2 {
  %3 = alloca ptr, align 8
  %4 = alloca i64, align 8
  %5 = alloca i64, align 8
  store ptr %0, ptr %3, align 8
  store i64 %1, ptr %4, align 8
  %6 = load i64, ptr %4, align 8
  %7 = lshr i64 %6, 21
  store i64 %7, ptr %5, align 8
  %8 = load i64, ptr %5, align 8
  ret i64 %8
}

; Function Attrs: mustprogress nounwind uwtable
define linkonce_odr hidden noundef ptr @_ZNK11XGranuleMapIP11XForwardingE3getEm(ptr noundef nonnull align 8 dereferenceable(16) %0, i64 noundef %1) #1 comdat align 2 {
  %3 = alloca ptr, align 8
  %4 = alloca i64, align 8
  %5 = alloca i64, align 8
  store ptr %0, ptr %3, align 8
  store i64 %1, ptr %4, align 8
  %6 = load ptr, ptr %3, align 8
  %7 = load i64, ptr %4, align 8
  %8 = call noundef i64 @_ZNK11XGranuleMapIP11XForwardingE16index_for_offsetEm(ptr noundef nonnull align 8 dereferenceable(16) %6, i64 noundef %7)
  store i64 %8, ptr %5, align 8
  %9 = getelementptr inbounds %class.XGranuleMap.9, ptr %6, i32 0, i32 1
  %10 = load ptr, ptr %9, align 8
  %11 = load i64, ptr %5, align 8
  %12 = getelementptr inbounds ptr, ptr %10, i64 %11
  %13 = load ptr, ptr %12, align 8
  ret ptr %13
}

; Function Attrs: mustprogress nounwind uwtable
define linkonce_odr hidden noundef ptr @_ZNK16XForwardingTable3getEm(ptr noundef nonnull align 8 dereferenceable(16) %0, i64 noundef %1) #1 comdat align 2 {
  %3 = alloca ptr, align 8
  %4 = alloca i64, align 8
  store ptr %0, ptr %3, align 8
  store i64 %1, ptr %4, align 8
  %5 = load ptr, ptr %3, align 8
  %6 = getelementptr inbounds %class.XForwardingTable, ptr %5, i32 0, i32 0
  %7 = load i64, ptr %4, align 8
  %8 = call noundef i64 @_ZN8XAddress6offsetEm(i64 noundef %7)
  %9 = call noundef ptr @_ZNK11XGranuleMapIP11XForwardingE3getEm(ptr noundef nonnull align 8 dereferenceable(16) %6, i64 noundef %8)
  ret ptr %9
}

; Function Attrs: mustprogress nounwind uwtable
define linkonce_odr hidden noundef i64 @_ZN5XHeap12remap_objectEm(ptr noundef nonnull align 64 dereferenceable(4088) %0, i64 noundef %1) #1 comdat align 2 {
  %3 = alloca i64, align 8
  %4 = alloca ptr, align 8
  %5 = alloca i64, align 8
  %6 = alloca ptr, align 8
  store ptr %0, ptr %4, align 8
  store i64 %1, ptr %5, align 8
  %7 = load ptr, ptr %4, align 8
  %8 = getelementptr inbounds %class.XHeap, ptr %7, i32 0, i32 4
  %9 = load i64, ptr %5, align 8
  %10 = call noundef ptr @_ZNK16XForwardingTable3getEm(ptr noundef nonnull align 8 dereferenceable(16) %8, i64 noundef %9)
  store ptr %10, ptr %6, align 8
  %11 = load ptr, ptr %6, align 8
  %12 = icmp eq ptr %11, null
  br i1 %12, label %13, label %16

13:                                               ; preds = %2
  %14 = load i64, ptr %5, align 8
  %15 = call noundef i64 @_ZN8XAddress4goodEm(i64 noundef %14)
  store i64 %15, ptr %3, align 8
  br label %22

16:                                               ; preds = %2
  %17 = getelementptr inbounds %class.XHeap, ptr %7, i32 0, i32 9
  %18 = load ptr, ptr %6, align 8
  %19 = load i64, ptr %5, align 8
  %20 = call noundef i64 @_ZN8XAddress4goodEm(i64 noundef %19)
  %21 = call noundef i64 @_ZNK9XRelocate14forward_objectEP11XForwardingm(ptr noundef nonnull align 8 dereferenceable(8) %17, ptr noundef %18, i64 noundef %20)
  store i64 %21, ptr %3, align 8
  br label %22

22:                                               ; preds = %16, %13
  %23 = load i64, ptr %3, align 8
  ret i64 %23
}

; Function Attrs: mustprogress nounwind uwtable
define linkonce_odr hidden noundef i64 @_ZN5XHeap15relocate_objectEm(ptr noundef nonnull align 64 dereferenceable(4088) %0, i64 noundef %1) #1 comdat align 2 {
  %3 = alloca i64, align 8
  %4 = alloca ptr, align 8
  %5 = alloca i64, align 8
  %6 = alloca ptr, align 8
  store ptr %0, ptr %4, align 8
  store i64 %1, ptr %5, align 8
  %7 = load ptr, ptr %4, align 8
  %8 = getelementptr inbounds %class.XHeap, ptr %7, i32 0, i32 4
  %9 = load i64, ptr %5, align 8
  %10 = call noundef ptr @_ZNK16XForwardingTable3getEm(ptr noundef nonnull align 8 dereferenceable(16) %8, i64 noundef %9)
  store ptr %10, ptr %6, align 8
  %11 = load ptr, ptr %6, align 8
  %12 = icmp eq ptr %11, null
  br i1 %12, label %13, label %16

13:                                               ; preds = %2
  %14 = load i64, ptr %5, align 8
  %15 = call noundef i64 @_ZN8XAddress4goodEm(i64 noundef %14)
  store i64 %15, ptr %3, align 8
  br label %22

16:                                               ; preds = %2
  %17 = getelementptr inbounds %class.XHeap, ptr %7, i32 0, i32 9
  %18 = load ptr, ptr %6, align 8
  %19 = load i64, ptr %5, align 8
  %20 = call noundef i64 @_ZN8XAddress4goodEm(i64 noundef %19)
  %21 = call noundef i64 @_ZNK9XRelocate15relocate_objectEP11XForwardingm(ptr noundef nonnull align 8 dereferenceable(8) %17, ptr noundef %18, i64 noundef %20)
  store i64 %21, ptr %3, align 8
  br label %22

22:                                               ; preds = %16, %13
  %23 = load i64, ptr %3, align 8
  ret i64 %23
}

; Function Attrs: mustprogress nounwind uwtable
define linkonce_odr hidden noundef ptr @_ZN5XHeap4heapEv() #1 comdat align 2 {
  %1 = load ptr, ptr @_ZN5XHeap5_heapE, align 8
  ret ptr %1
}

; Function Attrs: mustprogress nounwind uwtable
define hidden noundef i64 @_ZN8XBarrier5remapEm(i64 noundef %0) #1 align 2 {
  %2 = alloca i64, align 8
  store i64 %0, ptr %2, align 8
  %3 = call noundef ptr @_ZN5XHeap4heapEv()
  %4 = load i64, ptr %2, align 8
  %5 = call noundef i64 @_ZN5XHeap12remap_objectEm(ptr noundef nonnull align 64 dereferenceable(4088) %3, i64 noundef %4)
  ret i64 %5
}

; Function Attrs: mustprogress nounwind uwtable
define hidden noundef i64 @_ZN8XBarrier8relocateEm(i64 noundef %0) #1 align 2 {
  %2 = alloca i64, align 8
  store i64 %0, ptr %2, align 8
  %3 = call noundef ptr @_ZN5XHeap4heapEv()
  %4 = load i64, ptr %2, align 8
  %5 = call noundef i64 @_ZN5XHeap15relocate_objectEm(ptr noundef nonnull align 64 dereferenceable(4088) %3, i64 noundef %4)
  ret i64 %5
}

; Function Attrs: mustprogress nounwind uwtable
define linkonce_odr hidden noundef zeroext i1 @_ZN8XBarrier15during_relocateEv() #1 comdat align 2 {
  %1 = load i32, ptr @XGlobalPhase, align 4
  %2 = icmp eq i32 %1, 2
  ret i1 %2
}

; Function Attrs: mustprogress nounwind uwtable
define linkonce_odr hidden noundef i64 @_ZN8XAddress6offsetEm(i64 noundef %0) #1 comdat align 2 {
  %2 = alloca i64, align 8
  store i64 %0, ptr %2, align 8
  %3 = load i64, ptr %2, align 8
  %4 = load i64, ptr @XAddressOffsetMask, align 8
  %5 = and i64 %3, %4
  ret i64 %5
}

; Function Attrs: mustprogress nounwind uwtable
define linkonce_odr hidden noundef zeroext i1 @_ZN8XAddress7is_nullEm(i64 noundef %0) #1 comdat align 2 {
  %2 = alloca i64, align 8
  store i64 %0, ptr %2, align 8
  %3 = load i64, ptr %2, align 8
  %4 = icmp eq i64 %3, 0
  ret i1 %4
}

; Function Attrs: mustprogress nounwind uwtable
define linkonce_odr hidden noundef zeroext i1 @_ZN8XAddress11is_weak_badEm(i64 noundef %0) #1 comdat align 2 {
  %2 = alloca i64, align 8
  store i64 %0, ptr %2, align 8
  %3 = load i64, ptr %2, align 8
  %4 = load i64, ptr @XAddressWeakBadMask, align 8
  %5 = and i64 %3, %4
  %6 = icmp ne i64 %5, 0
  ret i1 %6
}

; Function Attrs: mustprogress nounwind uwtable
define hidden noundef i64 @_ZN8XBarrier17relocate_or_remapEm(i64 noundef %0) #1 align 2 {
  %2 = alloca i64, align 8
  store i64 %0, ptr %2, align 8
  %3 = call noundef zeroext i1 @_ZN8XBarrier15during_relocateEv()
  br i1 %3, label %4, label %7

4:                                                ; preds = %1
  %5 = load i64, ptr %2, align 8
  %6 = call noundef i64 @_ZN8XBarrier8relocateEm(i64 noundef %5)
  br label %10

7:                                                ; preds = %1
  %8 = load i64, ptr %2, align 8
  %9 = call noundef i64 @_ZN8XBarrier5remapEm(i64 noundef %8)
  br label %10

10:                                               ; preds = %7, %4
  %11 = phi i64 [ %6, %4 ], [ %9, %7 ]
  ret i64 %11
}

; Function Attrs: mustprogress nounwind uwtable
define linkonce_odr hidden noundef i64 @_ZN8XAddress4goodEm(i64 noundef %0) #1 comdat align 2 {
  %2 = alloca i64, align 8
  store i64 %0, ptr %2, align 8
  %3 = load i64, ptr %2, align 8
  %4 = call noundef i64 @_ZN8XAddress6offsetEm(i64 noundef %3)
  %5 = load i64, ptr @XAddressGoodMask, align 8
  %6 = or i64 %4, %5
  ret i64 %6
}

; Function Attrs: mustprogress nounwind uwtable
define linkonce_odr hidden noundef zeroext i1 @_ZN8XAddress12is_weak_goodEm(i64 noundef %0) #1 comdat align 2 {
  %2 = alloca i64, align 8
  store i64 %0, ptr %2, align 8
  %3 = load i64, ptr %2, align 8
  %4 = call noundef zeroext i1 @_ZN8XAddress11is_weak_badEm(i64 noundef %3)
  br i1 %4, label %9, label %5

5:                                                ; preds = %1
  %6 = load i64, ptr %2, align 8
  %7 = call noundef zeroext i1 @_ZN8XAddress7is_nullEm(i64 noundef %6)
  %8 = xor i1 %7, true
  br label %9

9:                                                ; preds = %5, %1
  %10 = phi i1 [ false, %1 ], [ %8, %5 ]
  ret i1 %10
}

; Function Attrs: mustprogress nounwind uwtable
define hidden noundef i64 @_ZN8XBarrier34weak_load_barrier_on_oop_slow_pathEm(i64 noundef %0) #1 align 2 {
  %2 = alloca i64, align 8
  store i64 %0, ptr %2, align 8
  %3 = load i64, ptr %2, align 8
  %4 = call noundef zeroext i1 @_ZN8XAddress12is_weak_goodEm(i64 noundef %3)
  br i1 %4, label %5, label %8

5:                                                ; preds = %1
  %6 = load i64, ptr %2, align 8
  %7 = call noundef i64 @_ZN8XAddress4goodEm(i64 noundef %6)
  br label %11

8:                                                ; preds = %1
  %9 = load i64, ptr %2, align 8
  %10 = call noundef i64 @_ZN8XBarrier17relocate_or_remapEm(i64 noundef %9)
  br label %11

11:                                               ; preds = %8, %5
  %12 = phi i64 [ %7, %5 ], [ %10, %8 ]
  ret i64 %12
}

; Function Attrs: mustprogress nounwind uwtable
define hidden noundef i64 @_ZN8XBarrier40keep_alive_barrier_on_weak_oop_slow_pathEm(i64 noundef %0) #1 align 2 {
  %2 = alloca i64, align 8
  %3 = alloca i64, align 8
  store i64 %0, ptr %2, align 8
  %4 = load i64, ptr %2, align 8
  %5 = call noundef i64 @_ZN8XBarrier34weak_load_barrier_on_oop_slow_pathEm(i64 noundef %4)
  store i64 %5, ptr %3, align 8
  %6 = load i64, ptr %3, align 8
  ret i64 %6
}