; Function Attrs: mustprogress nounwind uwtable
define hidden noundef i64 @_ZN8XBarrier40keep_alive_barrier_on_weak_oop_slow_pathEm(i64 noundef %0) local_unnamed_addr #0 align 2 {
  %2 = load i64, ptr @XAddressWeakBadMask, align 8
  %3 = and i64 %2, %0
  %.not.i.i = icmp eq i64 %3, 0
  %4 = icmp ne i64 %0, 0
  %5 = and i1 %4, %.not.i.i
  br i1 %5, label %6, label %11

6:                                                ; preds = %1
  %7 = load i64, ptr @XAddressOffsetMask, align 8
  %8 = and i64 %7, %0
  %9 = load i64, ptr @XAddressGoodMask, align 8
  %10 = or i64 %8, %9
  br label %_ZN8XBarrier34weak_load_barrier_on_oop_slow_pathEm.exit

11:                                               ; preds = %1
  %12 = load i32, ptr @XGlobalPhase, align 4
  %13 = icmp eq i32 %12, 2
  %14 = load ptr, ptr @_ZN5XHeap5_heapE, align 8
  %15 = load i64, ptr @XAddressOffsetMask, align 8
  %16 = and i64 %15, %0
  %17 = lshr i64 %16, 21
  %18 = getelementptr inbounds i8, ptr %14, i64 816
  %19 = load ptr, ptr %18, align 8
  %20 = getelementptr inbounds ptr, ptr %19, i64 %17
  %21 = load ptr, ptr %20, align 8
  %22 = icmp eq ptr %21, null
  br i1 %13, label %23, label %32

23:                                               ; preds = %11
  br i1 %22, label %24, label %27

24:                                               ; preds = %23
  %25 = load i64, ptr @XAddressGoodMask, align 8
  %26 = or i64 %25, %16
  br label %_ZN8XBarrier34weak_load_barrier_on_oop_slow_pathEm.exit

27:                                               ; preds = %23
  %28 = getelementptr inbounds i8, ptr %14, i64 3408
  %29 = load i64, ptr @XAddressGoodMask, align 8
  %30 = or i64 %29, %16
  %31 = tail call noundef i64 @_ZNK9XRelocate15relocate_objectEP11XForwardingm(ptr noundef nonnull align 8 dereferenceable(8) %28, ptr noundef nonnull %21, i64 noundef %30) #9
  br label %_ZN8XBarrier34weak_load_barrier_on_oop_slow_pathEm.exit

32:                                               ; preds = %11
  br i1 %22, label %33, label %36

33:                                               ; preds = %32
  %34 = load i64, ptr @XAddressGoodMask, align 8
  %35 = or i64 %34, %16
  br label %_ZN8XBarrier34weak_load_barrier_on_oop_slow_pathEm.exit

36:                                               ; preds = %32
  %37 = getelementptr inbounds i8, ptr %14, i64 3408
  %38 = load i64, ptr @XAddressGoodMask, align 8
  %39 = or i64 %38, %16
  %40 = tail call noundef i64 @_ZNK9XRelocate14forward_objectEP11XForwardingm(ptr noundef nonnull align 8 dereferenceable(8) %37, ptr noundef nonnull %21, i64 noundef %39) #9
  br label %_ZN8XBarrier34weak_load_barrier_on_oop_slow_pathEm.exit

_ZN8XBarrier34weak_load_barrier_on_oop_slow_pathEm.exit: ; preds = %6, %24, %27, %33, %36
  %41 = phi i64 [ %10, %6 ], [ %26, %24 ], [ %31, %27 ], [ %35, %33 ], [ %40, %36 ]
  ret i64 %41
}